	.cpu cortex-m4
	.eabi_attribute 27, 1
	.eabi_attribute 28, 1
	.eabi_attribute 20, 1
	.eabi_attribute 21, 1
	.eabi_attribute 23, 3
	.eabi_attribute 24, 1
	.eabi_attribute 25, 1
	.eabi_attribute 26, 1
	.eabi_attribute 30, 2
	.eabi_attribute 34, 1
	.eabi_attribute 18, 4
	.file	"lcd16x2.c"
	.text
.Ltext0:
	.cfi_sections	.debug_frame
	.align	1
	.p2align 2,,3
	.global	initLCD
	.syntax unified
	.thumb
	.thumb_func
	.fpu fpv4-sp-d16
	.type	initLCD, %function
initLCD:
.LFB113:
	.file 1 "lcd16x2.c"
	.loc 1 7 0
	.cfi_startproc
	@ args = 0, pretend = 0, frame = 0
	@ frame_needed = 0, uses_anonymous_args = 0
	push	{r3, lr}
	.cfi_def_cfa_offset 8
	.cfi_offset 3, -8
	.cfi_offset 14, -4
	.loc 1 9 0
	movs	r0, #100
	bl	delay_ms
.LVL0:
	.loc 1 11 0
	movs	r1, #60
	movs	r0, #78
	bl	txI2C2
.LVL1:
	.loc 1 12 0
	movs	r1, #56
	movs	r0, #78
	bl	txI2C2
.LVL2:
	.loc 1 13 0
	movs	r0, #10
	bl	delay_ms
.LVL3:
	.loc 1 15 0
	movs	r1, #60
	movs	r0, #78
	bl	txI2C2
.LVL4:
	.loc 1 16 0
	movs	r1, #56
	movs	r0, #78
	bl	txI2C2
.LVL5:
	.loc 1 17 0
	movs	r0, #10
	bl	delay_ms
.LVL6:
	.loc 1 19 0
	movs	r1, #60
	movs	r0, #78
	bl	txI2C2
.LVL7:
	.loc 1 20 0
	movs	r1, #56
	movs	r0, #78
	bl	txI2C2
.LVL8:
	.loc 1 23 0
	movs	r1, #44
	movs	r0, #78
	bl	txI2C2
.LVL9:
	.loc 1 24 0
	movs	r1, #40
	movs	r0, #78
	bl	txI2C2
.LVL10:
	.loc 1 26 0
	movs	r1, #44
	movs	r0, #78
	bl	txI2C2
.LVL11:
	.loc 1 27 0
	movs	r1, #40
	movs	r0, #78
	bl	txI2C2
.LVL12:
	.loc 1 28 0
	movs	r1, #204
	movs	r0, #78
	bl	txI2C2
.LVL13:
	.loc 1 29 0
	movs	r1, #200
	movs	r0, #78
	bl	txI2C2
.LVL14:
	.loc 1 30 0
	movs	r0, #5
	bl	delay_ms
.LVL15:
	.loc 1 32 0
	movs	r1, #12
	movs	r0, #78
	bl	txI2C2
.LVL16:
	.loc 1 33 0
	movs	r1, #8
	movs	r0, #78
	bl	txI2C2
.LVL17:
	.loc 1 34 0
	movs	r1, #140
	movs	r0, #78
	bl	txI2C2
.LVL18:
	.loc 1 35 0
	movs	r1, #136
	movs	r0, #78
	bl	txI2C2
.LVL19:
	.loc 1 36 0
	movs	r0, #5
	bl	delay_ms
.LVL20:
	.loc 1 38 0
	movs	r1, #12
	movs	r0, #78
	bl	txI2C2
.LVL21:
	.loc 1 39 0
	movs	r1, #8
	movs	r0, #78
	bl	txI2C2
.LVL22:
	.loc 1 40 0
	movs	r1, #28
	movs	r0, #78
	bl	txI2C2
.LVL23:
	.loc 1 41 0
	movs	r1, #24
	movs	r0, #78
	bl	txI2C2
.LVL24:
	.loc 1 42 0
	movs	r0, #5
	bl	delay_ms
.LVL25:
	.loc 1 44 0
	movs	r1, #12
	movs	r0, #78
	bl	txI2C2
.LVL26:
	.loc 1 45 0
	movs	r1, #8
	movs	r0, #78
	bl	txI2C2
.LVL27:
	.loc 1 46 0
	movs	r1, #204
	movs	r0, #78
	bl	txI2C2
.LVL28:
	.loc 1 47 0
	movs	r0, #78
	movs	r1, #200
	bl	txI2C2
.LVL29:
	.loc 1 48 0
	mov	r0, #1000
	.loc 1 50 0
	pop	{r3, lr}
	.cfi_restore 14
	.cfi_restore 3
	.cfi_def_cfa_offset 0
	.loc 1 48 0
	b	delay_ms
.LVL30:
	.cfi_endproc
.LFE113:
	.size	initLCD, .-initLCD
	.align	1
	.p2align 2,,3
	.global	sprintLCD
	.syntax unified
	.thumb
	.thumb_func
	.fpu fpv4-sp-d16
	.type	sprintLCD, %function
sprintLCD:
.LFB114:
	.loc 1 53 0
	.cfi_startproc
	@ args = 0, pretend = 0, frame = 0
	@ frame_needed = 0, uses_anonymous_args = 0
	@ link register save eliminated.
.LVL31:
	.loc 1 56 0
	ldr	r2, .L30
	ldrh	r3, [r2]
	orr	r3, r3, #256
	strh	r3, [r2]	@ movhi
.L5:
	.loc 1 60 0 discriminator 1
	ldrh	r3, [r2, #20]
	lsls	r1, r3, #31
	bpl	.L5
	.loc 1 61 0
	movs	r3, #78
	.loc 1 63 0
	ldr	r1, .L30
	.loc 1 61 0
	strh	r3, [r2, #16]	@ movhi
.L6:
	.loc 1 63 0 discriminator 1
	ldrh	r3, [r1, #20]
	lsls	r3, r3, #30
	bpl	.L6
	.loc 1 64 0
	ldrh	r3, [r1, #24]
.LVL32:
	.loc 1 68 0
	ldr	r3, .L30
	subs	r1, r0, #1
	addw	r0, r0, #1023
.LVL33:
.L7:
	.loc 1 66 0
	ldrb	r2, [r1, #1]!	@ zero_extendqisi2
.LVL34:
	cbz	r2, .L14
	.loc 1 68 0
	bic	r2, r2, #15
	orr	r2, r2, #13
	strh	r2, [r3, #16]	@ movhi
.L8:
	.loc 1 69 0 discriminator 1
	ldrh	r2, [r3, #20]
	lsls	r2, r2, #24
	bpl	.L8
	.loc 1 70 0
	ldrb	r2, [r1]	@ zero_extendqisi2
	bic	r2, r2, #15
	orr	r2, r2, #9
	strh	r2, [r3, #16]	@ movhi
.L9:
	.loc 1 71 0 discriminator 1
	ldrh	r2, [r3, #20]
	lsls	r2, r2, #24
	bpl	.L9
	.loc 1 72 0
	ldrb	r2, [r1]	@ zero_extendqisi2
	lsls	r2, r2, #4
	uxtb	r2, r2
	orr	r2, r2, #13
	strh	r2, [r3, #16]	@ movhi
.L10:
	.loc 1 73 0 discriminator 1
	ldrh	r2, [r3, #20]
	lsls	r2, r2, #24
	bpl	.L10
	.loc 1 74 0
	ldrb	r2, [r1]	@ zero_extendqisi2
	lsls	r2, r2, #4
	uxtb	r2, r2
	orr	r2, r2, #9
	strh	r2, [r3, #16]	@ movhi
.L11:
	.loc 1 75 0 discriminator 1
	ldrh	r2, [r3, #20]
	lsls	r2, r2, #24
	bpl	.L11
.LVL35:
	.loc 1 82 0
	cmp	r1, r0
	bne	.L7
.LVL36:
.L14:
	.loc 1 86 0
	ldr	r2, .L30
.L12:
	.loc 1 86 0 is_stmt 0 discriminator 1
	ldrh	r3, [r2, #20]
	lsls	r3, r3, #24
	bpl	.L12
	.loc 1 88 0 is_stmt 1
	ldrh	r3, [r2]
	orr	r3, r3, #512
	strh	r3, [r2]	@ movhi
	.loc 1 89 0
	bx	lr
.L31:
	.align	2
.L30:
	.word	1073764352
	.cfi_endproc
.LFE114:
	.size	sprintLCD, .-sprintLCD
	.align	1
	.p2align 2,,3
	.global	posCursor
	.syntax unified
	.thumb
	.thumb_func
	.fpu fpv4-sp-d16
	.type	posCursor, %function
posCursor:
.LFB115:
	.loc 1 93 0
	.cfi_startproc
	@ args = 0, pretend = 0, frame = 0
	@ frame_needed = 0, uses_anonymous_args = 0
	@ link register save eliminated.
.LVL37:
	.loc 1 96 0
	cmp	r0, #1
	.loc 1 93 0
	push	{r4, r5}
	.cfi_def_cfa_offset 8
	.cfi_offset 4, -8
	.cfi_offset 5, -4
	.loc 1 96 0
	beq	.L55
	.loc 1 97 0
	cmp	r0, #2
	beq	.L35
	ldr	r3, .L56
	ldrb	r2, [r3]	@ zero_extendqisi2
.L34:
	.loc 1 99 0
	ldr	r1, .L56+4
.LVL38:
	ldrh	r3, [r1]
	orr	r3, r3, #256
	strh	r3, [r1]	@ movhi
.LVL39:
.L36:
	.loc 1 103 0 discriminator 1
	ldrh	r3, [r1, #20]
	lsls	r0, r3, #31
	bpl	.L36
	.loc 1 104 0
	movs	r3, #78
	.loc 1 107 0
	ldr	r0, .L56+4
	.loc 1 104 0
	strh	r3, [r1, #16]	@ movhi
.L37:
	.loc 1 107 0 discriminator 1
	ldrh	r3, [r0, #20]
	lsls	r3, r3, #30
	bpl	.L37
	.loc 1 111 0
	and	r1, r2, #112
	orr	r3, r1, #140
	.loc 1 112 0
	ldr	r4, .L56+4
	.loc 1 108 0
	ldrh	r5, [r0, #24]
.LVL40:
	.loc 1 111 0
	strh	r3, [r0, #16]	@ movhi
.L38:
	.loc 1 112 0 discriminator 1
	ldrh	r3, [r4, #20]
	lsls	r5, r3, #24
	bpl	.L38
	.loc 1 113 0
	orr	r3, r1, #136
	.loc 1 114 0
	ldr	r1, .L56+4
	.loc 1 113 0
	strh	r3, [r4, #16]	@ movhi
.L39:
	.loc 1 114 0 discriminator 1
	ldrh	r3, [r1, #20]
	lsls	r0, r3, #24
	bpl	.L39
	.loc 1 115 0
	lsls	r2, r2, #4
	and	r2, r2, #240
	orr	r3, r2, #12
	.loc 1 116 0
	ldr	r0, .L56+4
	.loc 1 115 0
	strh	r3, [r1, #16]	@ movhi
.L40:
	.loc 1 116 0 discriminator 1
	ldrh	r3, [r0, #20]
	lsls	r1, r3, #24
	bpl	.L40
	.loc 1 117 0
	orr	r2, r2, #8
	.loc 1 118 0
	ldr	r1, .L56+4
	.loc 1 117 0
	strh	r2, [r0, #16]	@ movhi
.L41:
	.loc 1 118 0 discriminator 1
	ldrh	r3, [r1, #20]
	lsls	r3, r3, #24
	bpl	.L41
	.loc 1 122 0
	ldrh	r3, [r1]
	orr	r3, r3, #512
	strh	r3, [r1]	@ movhi
	.loc 1 125 0
	pop	{r4, r5}
	.cfi_remember_state
	.cfi_restore 5
	.cfi_restore 4
	.cfi_def_cfa_offset 0
	bx	lr
.LVL41:
.L35:
	.cfi_restore_state
	.loc 1 97 0 discriminator 1
	add	r2, r1, #63
	ldr	r3, .L56
	uxtb	r2, r2
	strb	r2, [r3]
	b	.L34
.L55:
	.loc 1 96 0 discriminator 1
	subs	r2, r1, #1
	ldr	r3, .L56
	uxtb	r2, r2
	strb	r2, [r3]
	b	.L34
.L57:
	.align	2
.L56:
	.word	.LANCHOR0
	.word	1073764352
	.cfi_endproc
.LFE115:
	.size	posCursor, .-posCursor
	.align	1
	.p2align 2,,3
	.global	putcharLCD
	.syntax unified
	.thumb
	.thumb_func
	.fpu fpv4-sp-d16
	.type	putcharLCD, %function
putcharLCD:
.LFB118:
	.loc 1 307 0
	.cfi_startproc
	@ args = 0, pretend = 0, frame = 0
	@ frame_needed = 0, uses_anonymous_args = 0
	@ link register save eliminated.
.LVL42:
	.loc 1 308 0
	ldr	r2, .L78
	ldrh	r3, [r2]
	orr	r3, r3, #256
	.loc 1 307 0
	push	{r4, r5}
	.cfi_def_cfa_offset 8
	.cfi_offset 4, -8
	.cfi_offset 5, -4
	.loc 1 308 0
	strh	r3, [r2]	@ movhi
.L59:
	.loc 1 312 0 discriminator 1
	ldrh	r3, [r2, #20]
	lsls	r1, r3, #31
	bpl	.L59
	.loc 1 313 0
	movs	r3, #78
	.loc 1 315 0
	ldr	r1, .L78
	.loc 1 313 0
	strh	r3, [r2, #16]	@ movhi
.L60:
	.loc 1 315 0 discriminator 1
	ldrh	r3, [r1, #20]
	lsls	r3, r3, #30
	bpl	.L60
	and	r2, r0, #240
	.loc 1 318 0
	orr	r3, r2, #13
	.loc 1 319 0
	ldr	r4, .L78
	.loc 1 316 0
	ldrh	r5, [r1, #24]
.LVL43:
	.loc 1 318 0
	strh	r3, [r1, #16]	@ movhi
.L61:
	.loc 1 319 0 discriminator 1
	ldrh	r3, [r4, #20]
	lsls	r5, r3, #24
	bpl	.L61
	.loc 1 320 0
	orr	r3, r2, #9
	.loc 1 321 0
	ldr	r2, .L78
	.loc 1 320 0
	strh	r3, [r4, #16]	@ movhi
.L62:
	.loc 1 321 0 discriminator 1
	ldrh	r3, [r2, #20]
	lsls	r1, r3, #24
	bpl	.L62
	.loc 1 322 0
	lsls	r0, r0, #4
.LVL44:
	and	r0, r0, #240
	orr	r3, r0, #13
	.loc 1 323 0
	ldr	r1, .L78
	.loc 1 322 0
	strh	r3, [r2, #16]	@ movhi
.L63:
	.loc 1 323 0 discriminator 1
	ldrh	r3, [r1, #20]
	lsls	r2, r3, #24
	bpl	.L63
	.loc 1 324 0
	orr	r0, r0, #9
	.loc 1 325 0
	ldr	r2, .L78
	.loc 1 324 0
	strh	r0, [r1, #16]	@ movhi
.L64:
	.loc 1 325 0 discriminator 1
	ldrh	r3, [r2, #20]
	lsls	r3, r3, #24
	bpl	.L64
	.loc 1 327 0
	ldrh	r3, [r2]
	orr	r3, r3, #512
	strh	r3, [r2]	@ movhi
	.loc 1 328 0
	pop	{r4, r5}
	.cfi_restore 5
	.cfi_restore 4
	.cfi_def_cfa_offset 0
	bx	lr
.L79:
	.align	2
.L78:
	.word	1073764352
	.cfi_endproc
.LFE118:
	.size	putcharLCD, .-putcharLCD
	.align	1
	.p2align 2,,3
	.global	eraseNChar
	.syntax unified
	.thumb
	.thumb_func
	.fpu fpv4-sp-d16
	.type	eraseNChar, %function
eraseNChar:
.LFB116:
	.loc 1 127 0
	.cfi_startproc
	@ args = 0, pretend = 0, frame = 0
	@ frame_needed = 0, uses_anonymous_args = 0
.LVL45:
.LBB2:
	.loc 1 128 0
	cbz	r0, .L88
.LBE2:
	.loc 1 127 0
	push	{r3, r4, r5, lr}
	.cfi_def_cfa_offset 16
	.cfi_offset 3, -16
	.cfi_offset 4, -12
	.cfi_offset 5, -8
	.cfi_offset 14, -4
	mov	r5, r0
.LBB3:
	.loc 1 128 0
	movs	r4, #0
.LVL46:
.L82:
	.loc 1 128 0 is_stmt 0 discriminator 3
	adds	r4, r4, #1
.LVL47:
	.loc 1 129 0 is_stmt 1 discriminator 3
	movs	r0, #32
	.loc 1 128 0 discriminator 3
	uxtb	r4, r4
	.loc 1 129 0 discriminator 3
	bl	putcharLCD
.LVL48:
	.loc 1 128 0 discriminator 3
	cmp	r5, r4
	bne	.L82
.LBE3:
	.loc 1 131 0
	pop	{r3, r4, r5, pc}
.LVL49:
.L88:
	.cfi_def_cfa_offset 0
	.cfi_restore 3
	.cfi_restore 4
	.cfi_restore 5
	.cfi_restore 14
	bx	lr
	.cfi_endproc
.LFE116:
	.size	eraseNChar, .-eraseNChar
	.align	1
	.p2align 2,,3
	.global	printLCD
	.syntax unified
	.thumb
	.thumb_func
	.fpu fpv4-sp-d16
	.type	printLCD, %function
printLCD:
.LFB117:
	.loc 1 135 0
	.cfi_startproc
	@ args = 4, pretend = 16, frame = 48
	@ frame_needed = 0, uses_anonymous_args = 1
.LVL50:
	push	{r0, r1, r2, r3}
	.cfi_def_cfa_offset 16
	.cfi_offset 0, -16
	.cfi_offset 1, -12
	.cfi_offset 2, -8
	.cfi_offset 3, -4
	push	{r4, r5, r6, r7, r8, lr}
	.cfi_def_cfa_offset 40
	.cfi_offset 4, -40
	.cfi_offset 5, -36
	.cfi_offset 6, -32
	.cfi_offset 7, -28
	.cfi_offset 8, -24
	.cfi_offset 14, -20
	sub	sp, sp, #48
	.cfi_def_cfa_offset 88
	.loc 1 135 0
	add	r3, sp, #72
	ldr	r6, [r3], #4
	.loc 1 145 0
	str	r3, [sp, #4]
.LVL51:
	.loc 1 147 0
	ldrb	r0, [r6]	@ zero_extendqisi2
	cbz	r0, .L91
	.loc 1 137 0
	movs	r4, #0
.LBB4:
	.loc 1 233 0
	ldr	r5, .L133
.LBE4:
	.loc 1 147 0
	mov	r3, r4
	mov	r7, r6
.LVL52:
.L116:
	.loc 1 149 0
	cmp	r0, #37
	bne	.L93
	.loc 1 151 0
	add	r3, r3, r6
	ldrb	r2, [r3, #1]	@ zero_extendqisi2
	cbz	r2, .L94
	.loc 1 153 0
	subs	r2, r2, #98
	cmp	r2, #22
	bhi	.L95
	tbb	[pc, r2]
.L97:
	.byte	(.L96-.L97)/2
	.byte	(.L98-.L97)/2
	.byte	(.L99-.L97)/2
	.byte	(.L95-.L97)/2
	.byte	(.L100-.L97)/2
	.byte	(.L95-.L97)/2
	.byte	(.L95-.L97)/2
	.byte	(.L95-.L97)/2
	.byte	(.L95-.L97)/2
	.byte	(.L95-.L97)/2
	.byte	(.L95-.L97)/2
	.byte	(.L95-.L97)/2
	.byte	(.L95-.L97)/2
	.byte	(.L95-.L97)/2
	.byte	(.L95-.L97)/2
	.byte	(.L95-.L97)/2
	.byte	(.L95-.L97)/2
	.byte	(.L101-.L97)/2
	.byte	(.L95-.L97)/2
	.byte	(.L95-.L97)/2
	.byte	(.L95-.L97)/2
	.byte	(.L95-.L97)/2
	.byte	(.L102-.L97)/2
	.p2align 1
.L101:
	.loc 1 220 0
	ldr	r3, [sp, #4]
	adds	r2, r3, #4
	.loc 1 222 0
	ldr	r0, [r3]
	.loc 1 220 0
	str	r2, [sp, #4]
	.loc 1 222 0
	bl	sprintLCD
.LVL53:
.L110:
	.loc 1 291 0
	adds	r4, r4, #1
.LVL54:
	uxth	r4, r4
.LVL55:
.L94:
	.loc 1 300 0
	adds	r4, r4, #1
.LVL56:
	uxth	r4, r4
.LVL57:
	.loc 1 147 0
	mov	r3, r4
	ldrb	r0, [r6, r4]	@ zero_extendqisi2
	adds	r7, r6, r4
	cmp	r0, #0
	bne	.L116
.LVL58:
.L91:
	.loc 1 305 0
	add	sp, sp, #48
	.cfi_remember_state
	.cfi_def_cfa_offset 40
.LVL59:
	@ sp needed
	pop	{r4, r5, r6, r7, r8, lr}
	.cfi_restore 14
	.cfi_restore 8
	.cfi_restore 7
	.cfi_restore 6
	.cfi_restore 5
	.cfi_restore 4
	.cfi_def_cfa_offset 16
	add	sp, sp, #16
	.cfi_restore 3
	.cfi_restore 2
	.cfi_restore 1
	.cfi_restore 0
	.cfi_def_cfa_offset 0
	bx	lr
.LVL60:
.L93:
	.cfi_restore_state
	.loc 1 296 0
	bl	putcharLCD
.LVL61:
	.loc 1 297 0
	ldrb	r0, [r7]	@ zero_extendqisi2
	cmp	r0, #10
	bne	.L94
	.loc 1 298 0
	bl	putcharLCD
.LVL62:
	b	.L94
.L102:
	.loc 1 250 0
	ldrb	r3, [r3, #2]	@ zero_extendqisi2
	ldr	r2, [sp, #4]
	cmp	r3, #98
	add	r1, r2, #4
	ldr	r2, [r2]
	beq	.L127
	.loc 1 255 0
	cmp	r3, #104
	beq	.L128
	.loc 1 260 0
	cmp	r3, #119
	.loc 1 272 0
	itt	eq
	addeq	r4, r4, #1
.LVL63:
	uxtheq	r4, r4
	.loc 1 267 0
	strd	r2, r1, [sp]
.LVL64:
	.loc 1 268 0
	mov	r0, #2048
	b	.L104
.LVL65:
.L100:
.LBB5:
	.loc 1 228 0
	ldr	r3, [sp, #4]
	adds	r3, r3, #7
	bic	r3, r3, #7
	ldrd	r7, [r3]
.LVL66:
	adds	r3, r3, #8
	.loc 1 233 0
	and	r2, r5, r8, lsl #3
	.loc 1 235 0
	cmp	r7, #0
	.loc 1 234 0
	orr	r2, r2, r7, lsr #29
	.loc 1 228 0
	str	r3, [sp, #4]
	.loc 1 238 0
	mov	r0, #0
	.loc 1 235 0
	sbcs	r3, r8, #0
	.loc 1 238 0
	and	r1, r8, #1073741824
	.loc 1 236 0
	it	lt
	orrlt	r2, r2, #-2147483648
	.loc 1 238 0
	orrs	r3, r0, r1
	.loc 1 236 0
	str	r2, [sp]
	.loc 1 238 0
	beq	.L117
	.loc 1 239 0
	ldr	r3, [sp]
	orr	r3, r3, #1073741824
	str	r3, [sp]
	mov	r0, #256
	b	.L104
.LVL67:
.L99:
.LBE5:
	.loc 1 185 0
	ldrb	r3, [r3, #2]	@ zero_extendqisi2
	ldr	r2, [sp, #4]
	cmp	r3, #98
	add	r1, r2, #4
	ldr	r2, [r2]
	beq	.L129
	.loc 1 190 0
	cmp	r3, #104
	beq	.L130
	.loc 1 195 0
	cmp	r3, #119
	.loc 1 207 0
	itt	eq
	addeq	r4, r4, #1
.LVL68:
	uxtheq	r4, r4
	.loc 1 202 0
	strd	r2, r1, [sp]
.LVL69:
	.loc 1 203 0
	movs	r0, #32
	b	.L104
.LVL70:
.L98:
.LBB6:
	.loc 1 213 0
	ldr	r3, [sp, #4]
	adds	r3, r3, #4
	str	r3, [sp, #4]
.LVL71:
	.loc 1 216 0
	b	.L110
.LVL72:
.L96:
.LBE6:
	.loc 1 157 0
	ldrb	r3, [r3, #2]	@ zero_extendqisi2
	ldr	r2, [sp, #4]
	cmp	r3, #98
	add	r1, r2, #4
	ldr	r2, [r2]
	beq	.L131
	.loc 1 162 0
	cmp	r3, #104
	beq	.L132
	.loc 1 167 0
	cmp	r3, #119
	.loc 1 174 0
	strd	r2, r1, [sp]
	.loc 1 179 0
	itt	eq
	addeq	r4, r4, #1
.LVL73:
	uxtheq	r4, r4
.LVL74:
	.loc 1 175 0
	movs	r0, #4
.LVL75:
.L104:
	.loc 1 287 0
	add	r2, sp, #8
	mov	r1, sp
	bl	getStr4NumMISC
.LVL76:
	.loc 1 289 0
	add	r0, sp, #8
	bl	sprintLCD
.LVL77:
	b	.L110
.L95:
	.loc 1 278 0
	movs	r3, #0
	str	r3, [sp]
.LVL78:
	.loc 1 281 0
	b	.L110
.LVL79:
.L117:
.LBB7:
	mov	r0, #256
	b	.L104
.LVL80:
.L127:
.LBE7:
	.loc 1 272 0
	adds	r4, r4, #1
.LVL81:
	uxth	r4, r4
	.loc 1 252 0
	strd	r2, r1, [sp]
.LVL82:
	.loc 1 253 0
	mov	r0, #512
	b	.L104
.LVL83:
.L131:
	.loc 1 179 0
	adds	r4, r4, #1
.LVL84:
	uxth	r4, r4
	.loc 1 159 0
	strd	r2, r1, [sp]
.LVL85:
	.loc 1 160 0
	movs	r0, #1
	b	.L104
.LVL86:
.L129:
	.loc 1 207 0
	adds	r4, r4, #1
.LVL87:
	uxth	r4, r4
	.loc 1 187 0
	strd	r2, r1, [sp]
.LVL88:
	.loc 1 188 0
	movs	r0, #8
	b	.L104
.LVL89:
.L132:
	.loc 1 179 0
	adds	r4, r4, #1
.LVL90:
	uxth	r4, r4
	.loc 1 164 0
	strd	r2, r1, [sp]
.LVL91:
	.loc 1 165 0
	movs	r0, #2
	b	.L104
.LVL92:
.L128:
	.loc 1 272 0
	adds	r4, r4, #1
.LVL93:
	uxth	r4, r4
	.loc 1 257 0
	strd	r2, r1, [sp]
.LVL94:
	.loc 1 258 0
	mov	r0, #1024
	b	.L104
.LVL95:
.L130:
	.loc 1 207 0
	adds	r4, r4, #1
.LVL96:
	uxth	r4, r4
	.loc 1 192 0
	strd	r2, r1, [sp]
.LVL97:
	.loc 1 193 0
	movs	r0, #16
	b	.L104
.L134:
	.align	2
.L133:
	.word	1073741816
	.cfi_endproc
.LFE117:
	.size	printLCD, .-printLCD
	.global	__aeabi_f2d
	.align	1
	.p2align 2,,3
	.global	printLCDFloat
	.syntax unified
	.thumb
	.thumb_func
	.fpu fpv4-sp-d16
	.type	printLCDFloat, %function
printLCDFloat:
.LFB119:
	.loc 1 330 0
	.cfi_startproc
	@ args = 0, pretend = 0, frame = 0
	@ frame_needed = 0, uses_anonymous_args = 0
.LVL98:
	push	{r3, lr}
	.cfi_def_cfa_offset 8
	.cfi_offset 3, -8
	.cfi_offset 14, -4
	vpush.64	{d8}
	.cfi_def_cfa_offset 16
	.cfi_offset 80, -16
	.cfi_offset 81, -12
	.loc 1 331 0
	vcvt.s32.f32	s17, s0
.LVL99:
	.loc 1 332 0
	vldr.32	s14, .L143
	vcvt.f32.s32	s15, s17
	.loc 1 330 0
	vmov.f32	s16, s0
	.loc 1 332 0
	vsub.f32	s15, s0, s15
	vmul.f32	s15, s15, s14
	vmov	r0, s15
	bl	__aeabi_f2d
.LVL100:
	vmov	d0, r0, r1
	bl	round
.LVL101:
	bl	abs
.LVL102:
	.loc 1 333 0
	vmov.f32	s15, #-1.0e+0
	vcmpe.f32	s16, s15
	vmrs	APSR_nzcv, FPSCR
	mov	r2, r0
	vmov	r1, s17	@ int
	ble	.L136
	.loc 1 333 0 is_stmt 0 discriminator 1
	vcmpe.f32	s16, #0
	vmrs	APSR_nzcv, FPSCR
	bmi	.L142
.L136:
	.loc 1 335 0 is_stmt 1
	vldm	sp!, {d8}
	.cfi_remember_state
	.cfi_restore 80
	.cfi_restore 81
	.cfi_def_cfa_offset 8
.LVL103:
	.loc 1 334 0
	ldr	r0, .L143+4
.LVL104:
	.loc 1 335 0
	pop	{r3, lr}
	.cfi_restore 14
	.cfi_restore 3
	.cfi_def_cfa_offset 0
	.loc 1 334 0
	b	printLCD
.LVL105:
.L142:
	.cfi_restore_state
	.loc 1 335 0 discriminator 2
	vldm	sp!, {d8}
	.cfi_restore 80
	.cfi_restore 81
	.cfi_def_cfa_offset 8
.LVL106:
	.loc 1 333 0 discriminator 2
	ldr	r0, .L143+8
.LVL107:
	.loc 1 335 0 discriminator 2
	pop	{r3, lr}
	.cfi_restore 14
	.cfi_restore 3
	.cfi_def_cfa_offset 0
	.loc 1 333 0 discriminator 2
	b	printLCD
.LVL108:
.L144:
	.align	2
.L143:
	.word	1120403456
	.word	.LC1
	.word	.LC0
	.cfi_endproc
.LFE119:
	.size	printLCDFloat, .-printLCDFloat
	.align	1
	.p2align 2,,3
	.global	clearLCD
	.syntax unified
	.thumb
	.thumb_func
	.fpu fpv4-sp-d16
	.type	clearLCD, %function
clearLCD:
.LFB120:
	.loc 1 337 0
	.cfi_startproc
	@ args = 0, pretend = 0, frame = 0
	@ frame_needed = 0, uses_anonymous_args = 0
	push	{r3, lr}
	.cfi_def_cfa_offset 8
	.cfi_offset 3, -8
	.cfi_offset 14, -4
	.loc 1 338 0
	movs	r1, #12
	movs	r0, #78
	bl	txI2C2
.LVL109:
	.loc 1 339 0
	movs	r1, #8
	movs	r0, #78
	bl	txI2C2
.LVL110:
	.loc 1 340 0
	movs	r1, #28
	movs	r0, #78
	bl	txI2C2
.LVL111:
	.loc 1 341 0
	movs	r1, #24
	movs	r0, #78
	.loc 1 344 0
	pop	{r3, lr}
	.cfi_restore 14
	.cfi_restore 3
	.cfi_def_cfa_offset 0
	.loc 1 341 0
	b	txI2C2
.LVL112:
	.cfi_endproc
.LFE120:
	.size	clearLCD, .-clearLCD
	.global	ddram_addr
	.bss
	.set	.LANCHOR0,. + 0
	.type	ddram_addr, %object
	.size	ddram_addr, 1
ddram_addr:
	.space	1
	.section	.rodata.str1.4,"aMS",%progbits,1
	.align	2
.LC0:
	.ascii	"-%d.%d\000"
	.space	1
.LC1:
	.ascii	"%d.%d\000"
	.text
.Letext0:
	.file 2 "/home/mahir/msut/gcc-arm-none-eabi/arm-none-eabi/include/machine/_default_types.h"
	.file 3 "/home/mahir/msut/gcc-arm-none-eabi/arm-none-eabi/include/sys/_stdint.h"
	.file 4 "../sdk/core_cm4.h"
	.file 5 "../sdk/system_stm32f4xx.h"
	.file 6 "../sdk/stm32f4xx.h"
	.file 7 "/home/mahir/msut/gcc-arm-none-eabi/lib/gcc/arm-none-eabi/7.3.1/include/stdarg.h"
	.file 8 "/home/mahir/msut/gcc-arm-none-eabi/arm-none-eabi/include/stdio.h"
	.file 9 "/home/mahir/msut/gcc-arm-none-eabi/arm-none-eabi/include/sys/lock.h"
	.file 10 "/home/mahir/msut/gcc-arm-none-eabi/arm-none-eabi/include/sys/_types.h"
	.file 11 "/home/mahir/msut/gcc-arm-none-eabi/lib/gcc/arm-none-eabi/7.3.1/include/stddef.h"
	.file 12 "/home/mahir/msut/gcc-arm-none-eabi/arm-none-eabi/include/sys/reent.h"
	.file 13 "<built-in>"
	.file 14 "lcd16x2.h"
	.file 15 "i2c.h"
	.file 16 "misc.h"